; Function Attrs: nounwind uwtable
define void @dt_bauhaus_slider_set_val(ptr noundef %0, float noundef %1) local_unnamed_addr #0 {
  %3 = load atomic i64, ptr @dt_bh_get_type.static_g_define_type_id seq_cst, align 8
  %.not.i.i = icmp eq i64 %3, 0
  br i1 %.not.i.i, label %4, label %DT_BAUHAUS_WIDGET.exit

4:                                                ; preds = %2
  %5 = tail call i32 @g_once_init_enter(ptr noundef nonnull @dt_bh_get_type.static_g_define_type_id) #19
  %.not4.i.i = icmp eq i32 %5, 0
  br i1 %.not4.i.i, label %DT_BAUHAUS_WIDGET.exit, label %6

6:                                                ; preds = %4
  %7 = tail call fastcc i64 @dt_bh_get_type_once()
  tail call void @g_once_init_leave(ptr noundef nonnull @dt_bh_get_type.static_g_define_type_id, i64 noundef %7) #19
  br label %DT_BAUHAUS_WIDGET.exit

DT_BAUHAUS_WIDGET.exit:                           ; preds = %2, %4, %6
  %8 = load i64, ptr @dt_bh_get_type.static_g_define_type_id, align 8, !tbaa !6
  %9 = tail call ptr @g_type_check_instance_cast(ptr noundef %0, i64 noundef %8) #19
  %10 = getelementptr inbounds nuw i8, ptr %9, i64 500
  %11 = load float, ptr %10, align 4, !tbaa !218
  %12 = fsub reassoc nsz arcp contract afn float %1, %11
  %13 = getelementptr inbounds nuw i8, ptr %9, i64 496
  %14 = load float, ptr %13, align 8, !tbaa !122
  %15 = fdiv reassoc nsz arcp contract afn float %12, %14
  tail call void @dt_bauhaus_slider_set(ptr noundef %0, float noundef %15)
  ret void
}